target datalayout = "e-m:e-p270:32:32-p271:32:32-p272:64:64-i64:64-i128:128-f80:128-n8:16:32:64-S128"
target triple = "x86_64-pc-linux-gnu"

%struct.CLLCContext = type { ptr, %struct.BswapDSPContext, ptr, i32 }
%struct.BswapDSPContext = type { ptr, ptr }
%struct.GetBitContext = type { ptr, ptr, i32, i32, i32 }

@.str.9 = private unnamed_addr constant [17 x i8] c"To long VLCs %d\0A\00", align 1
@.str.10 = private unnamed_addr constant [32 x i8] c"Too many VLCs (%d) to be read.\0A\00", align 1

; Function Attrs: alwaysinline nounwind willreturn memory(none) uwtable
define internal i32 @av_bswap32(i32 noundef %0) #5 {
  %2 = alloca i32, align 4
  store i32 %0, ptr %2, align 4, !tbaa !45
  %3 = load i32, ptr %2, align 4, !tbaa !45
  %4 = shl i32 %3, 8
  %5 = and i32 %4, 65280
  %6 = load i32, ptr %2, align 4, !tbaa !45
  %7 = lshr i32 %6, 8
  %8 = and i32 %7, 255
  %9 = or i32 %5, %8
  %10 = shl i32 %9, 16
  %11 = load i32, ptr %2, align 4, !tbaa !45
  %12 = lshr i32 %11, 16
  %13 = shl i32 %12, 8
  %14 = and i32 %13, 65280
  %15 = load i32, ptr %2, align 4, !tbaa !45
  %16 = lshr i32 %15, 16
  %17 = lshr i32 %16, 8
  %18 = and i32 %17, 255
  %19 = or i32 %14, %18
  %20 = or i32 %10, %19
  ret i32 %20
}

; Function Attrs: inlinehint nounwind uwtable
define internal i32 @get_bits(ptr noundef %0, i32 noundef %1) #4 {
  %3 = alloca ptr, align 8
  %4 = alloca i32, align 4
  %5 = alloca i32, align 4
  %6 = alloca i32, align 4
  %7 = alloca i32, align 4
  %8 = alloca i32, align 4
  store ptr %0, ptr %3, align 8, !tbaa !52
  store i32 %1, ptr %4, align 4, !tbaa !45
  call void @llvm.lifetime.start.p0(i64 4, ptr %5) #6
  call void @llvm.lifetime.start.p0(i64 4, ptr %6) #6
  %9 = load ptr, ptr %3, align 8, !tbaa !52
  %10 = getelementptr inbounds nuw %struct.GetBitContext, ptr %9, i32 0, i32 2
  %11 = load i32, ptr %10, align 8, !tbaa !74
  store i32 %11, ptr %6, align 4, !tbaa !45
  call void @llvm.lifetime.start.p0(i64 4, ptr %7) #6
  call void @llvm.lifetime.start.p0(i64 4, ptr %8) #6
  %12 = load ptr, ptr %3, align 8, !tbaa !52
  %13 = getelementptr inbounds nuw %struct.GetBitContext, ptr %12, i32 0, i32 4
  %14 = load i32, ptr %13, align 8, !tbaa !72
  store i32 %14, ptr %8, align 4, !tbaa !45
  %15 = load ptr, ptr %3, align 8, !tbaa !52
  %16 = getelementptr inbounds nuw %struct.GetBitContext, ptr %15, i32 0, i32 0
  %17 = load ptr, ptr %16, align 8, !tbaa !71
  %18 = load i32, ptr %6, align 4, !tbaa !45
  %19 = lshr i32 %18, 3
  %20 = zext i32 %19 to i64
  %21 = getelementptr inbounds nuw i8, ptr %17, i64 %20
  %22 = load i32, ptr %21, align 1, !tbaa !46
  %23 = call i32 @av_bswap32(i32 noundef %22) #7
  %24 = load i32, ptr %6, align 4, !tbaa !45
  %25 = and i32 %24, 7
  %26 = shl i32 %23, %25
  %27 = lshr i32 %26, 0
  store i32 %27, ptr %7, align 4, !tbaa !45
  %28 = load i32, ptr %7, align 4, !tbaa !45
  %29 = load i32, ptr %4, align 4, !tbaa !45
  %30 = sub nsw i32 32, %29
  %31 = lshr i32 %28, %30
  store i32 %31, ptr %5, align 4, !tbaa !45
  %32 = load i32, ptr %8, align 4, !tbaa !45
  %33 = load i32, ptr %6, align 4, !tbaa !45
  %34 = load i32, ptr %4, align 4, !tbaa !45
  %35 = add i32 %33, %34
  %36 = icmp ugt i32 %32, %35
  br i1 %36, label %37, label %41

37:                                               ; preds = %2
  %38 = load i32, ptr %6, align 4, !tbaa !45
  %39 = load i32, ptr %4, align 4, !tbaa !45
  %40 = add i32 %38, %39
  br label %43

41:                                               ; preds = %2
  %42 = load i32, ptr %8, align 4, !tbaa !45
  br label %43

43:                                               ; preds = %41, %37
  %44 = phi i32 [ %40, %37 ], [ %42, %41 ]
  store i32 %44, ptr %6, align 4, !tbaa !45
  %45 = load i32, ptr %6, align 4, !tbaa !45
  %46 = load ptr, ptr %3, align 8, !tbaa !52
  %47 = getelementptr inbounds nuw %struct.GetBitContext, ptr %46, i32 0, i32 2
  store i32 %45, ptr %47, align 8, !tbaa !74
  %48 = load i32, ptr %5, align 4, !tbaa !45
  call void @llvm.lifetime.end.p0(i64 4, ptr %8) #6
  call void @llvm.lifetime.end.p0(i64 4, ptr %7) #6
  call void @llvm.lifetime.end.p0(i64 4, ptr %6) #6
  call void @llvm.lifetime.end.p0(i64 4, ptr %5) #6
  ret i32 %48
}

; Function Attrs: nounwind uwtable
define internal i32 @read_code_table(ptr noundef %0, ptr noundef %1, ptr noundef %2) #1 {
  %4 = alloca i32, align 4
  %5 = alloca ptr, align 8
  %6 = alloca ptr, align 8
  %7 = alloca ptr, align 8
  %8 = alloca [256 x i8], align 16
  %9 = alloca [256 x i8], align 16
  %10 = alloca i32, align 4
  %11 = alloca i32, align 4
  %12 = alloca i32, align 4
  %13 = alloca i32, align 4
  %14 = alloca i32, align 4
  %15 = alloca i32, align 4
  %16 = alloca i32, align 4
  store ptr %0, ptr %5, align 8, !tbaa !29
  store ptr %1, ptr %6, align 8, !tbaa !52
  store ptr %2, ptr %7, align 8, !tbaa !75
  call void @llvm.lifetime.start.p0(i64 256, ptr %8) #6
  call void @llvm.lifetime.start.p0(i64 256, ptr %9) #6
  call void @llvm.lifetime.start.p0(i64 4, ptr %10) #6
  call void @llvm.lifetime.start.p0(i64 4, ptr %11) #6
  call void @llvm.lifetime.start.p0(i64 4, ptr %12) #6
  call void @llvm.lifetime.start.p0(i64 4, ptr %13) #6
  call void @llvm.lifetime.start.p0(i64 4, ptr %14) #6
  call void @llvm.lifetime.start.p0(i64 4, ptr %15) #6
  store i32 0, ptr %15, align 4, !tbaa !45
  store i32 0, ptr %12, align 4, !tbaa !45
  %17 = load ptr, ptr %6, align 8, !tbaa !52
  %18 = call i32 @get_bits(ptr noundef %17, i32 noundef 5)
  store i32 %18, ptr %10, align 4, !tbaa !45
  %19 = load i32, ptr %10, align 4, !tbaa !45
  %20 = icmp sgt i32 %19, 14
  br i1 %20, label %21, label %26

21:                                               ; preds = %3
  %22 = load ptr, ptr %5, align 8, !tbaa !29
  %23 = getelementptr inbounds nuw %struct.CLLCContext, ptr %22, i32 0, i32 0
  %24 = load ptr, ptr %23, align 8, !tbaa !31
  %25 = load i32, ptr %10, align 4, !tbaa !45
  call void (ptr, i32, ptr, ...) @av_log(ptr noundef %24, i32 noundef 16, ptr noundef @.str.9, i32 noundef %25)
  store i32 -1094995529, ptr %4, align 4
  store i32 1, ptr %16, align 4
  br label %80

26:                                               ; preds = %3
  store i32 0, ptr %13, align 4, !tbaa !45
  br label %27

27:                                               ; preds = %68, %26
  %28 = load i32, ptr %13, align 4, !tbaa !45
  %29 = load i32, ptr %10, align 4, !tbaa !45
  %30 = icmp slt i32 %28, %29
  br i1 %30, label %31, label %71

31:                                               ; preds = %27
  %32 = load ptr, ptr %6, align 8, !tbaa !52
  %33 = call i32 @get_bits(ptr noundef %32, i32 noundef 9)
  store i32 %33, ptr %11, align 4, !tbaa !45
  %34 = load i32, ptr %11, align 4, !tbaa !45
  %35 = load i32, ptr %12, align 4, !tbaa !45
  %36 = add nsw i32 %35, %34
  store i32 %36, ptr %12, align 4, !tbaa !45
  %37 = load i32, ptr %12, align 4, !tbaa !45
  %38 = icmp sgt i32 %37, 256
  br i1 %38, label %39, label %44

39:                                               ; preds = %31
  %40 = load ptr, ptr %5, align 8, !tbaa !29
  %41 = getelementptr inbounds nuw %struct.CLLCContext, ptr %40, i32 0, i32 0
  %42 = load ptr, ptr %41, align 8, !tbaa !31
  %43 = load i32, ptr %12, align 4, !tbaa !45
  call void (ptr, i32, ptr, ...) @av_log(ptr noundef %42, i32 noundef 16, ptr noundef @.str.10, i32 noundef %43)
  store i32 -1094995529, ptr %4, align 4
  store i32 1, ptr %16, align 4
  br label %80

44:                                               ; preds = %31
  store i32 0, ptr %14, align 4, !tbaa !45
  br label %45

45:                                               ; preds = %64, %44
  %46 = load i32, ptr %14, align 4, !tbaa !45
  %47 = load i32, ptr %11, align 4, !tbaa !45
  %48 = icmp slt i32 %46, %47
  br i1 %48, label %49, label %67

49:                                               ; preds = %45
  %50 = load ptr, ptr %6, align 8, !tbaa !52
  %51 = call i32 @get_bits(ptr noundef %50, i32 noundef 8)
  %52 = trunc i32 %51 to i8
  %53 = load i32, ptr %15, align 4, !tbaa !45
  %54 = sext i32 %53 to i64
  %55 = getelementptr inbounds [256 x i8], ptr %8, i64 0, i64 %54
  store i8 %52, ptr %55, align 1, !tbaa !46
  %56 = load i32, ptr %13, align 4, !tbaa !45
  %57 = add nsw i32 %56, 1
  %58 = trunc i32 %57 to i8
  %59 = load i32, ptr %15, align 4, !tbaa !45
  %60 = sext i32 %59 to i64
  %61 = getelementptr inbounds [256 x i8], ptr %9, i64 0, i64 %60
  store i8 %58, ptr %61, align 1, !tbaa !46
  %62 = load i32, ptr %15, align 4, !tbaa !45
  %63 = add nsw i32 %62, 1
  store i32 %63, ptr %15, align 4, !tbaa !45
  br label %64

64:                                               ; preds = %49
  %65 = load i32, ptr %14, align 4, !tbaa !45
  %66 = add nsw i32 %65, 1
  store i32 %66, ptr %14, align 4, !tbaa !45
  br label %45, !llvm.loop !77

67:                                               ; preds = %45
  br label %68

68:                                               ; preds = %67
  %69 = load i32, ptr %13, align 4, !tbaa !45
  %70 = add nsw i32 %69, 1
  store i32 %70, ptr %13, align 4, !tbaa !45
  br label %27, !llvm.loop !78

71:                                               ; preds = %27
  %72 = load ptr, ptr %7, align 8, !tbaa !75
  %73 = load i32, ptr %15, align 4, !tbaa !45
  %74 = getelementptr inbounds [256 x i8], ptr %9, i64 0, i64 0
  %75 = getelementptr inbounds [256 x i8], ptr %8, i64 0, i64 0
  %76 = load ptr, ptr %5, align 8, !tbaa !29
  %77 = getelementptr inbounds nuw %struct.CLLCContext, ptr %76, i32 0, i32 0
  %78 = load ptr, ptr %77, align 8, !tbaa !31
  %79 = call i32 @ff_vlc_init_from_lengths(ptr noundef %72, i32 noundef 7, i32 noundef %73, ptr noundef %74, i32 noundef 1, ptr noundef %75, i32 noundef 1, i32 noundef 1, i32 noundef 0, i32 noundef 0, ptr noundef %78)
  store i32 %79, ptr %4, align 4
  store i32 1, ptr %16, align 4
  br label %80

80:                                               ; preds = %71, %39, %21
  call void @llvm.lifetime.end.p0(i64 4, ptr %15) #6
  call void @llvm.lifetime.end.p0(i64 4, ptr %14) #6
  call void @llvm.lifetime.end.p0(i64 4, ptr %13) #6
  call void @llvm.lifetime.end.p0(i64 4, ptr %12) #6
  call void @llvm.lifetime.end.p0(i64 4, ptr %11) #6
  call void @llvm.lifetime.end.p0(i64 4, ptr %10) #6
  call void @llvm.lifetime.end.p0(i64 256, ptr %9) #6
  call void @llvm.lifetime.end.p0(i64 256, ptr %8) #6
  %81 = load i32, ptr %4, align 4
  ret i32 %81
}