; Function Attrs: nounwind uwtable
define internal fastcc i32 @read_code_table(ptr noundef readonly captures(none) %0, ptr noundef nonnull captures(none) %1, ptr noundef nonnull %2) unnamed_addr #1 {
  %4 = alloca [256 x i8], align 16
  %5 = alloca [256 x i8], align 16
  call void @llvm.lifetime.start.p0(i64 256, ptr nonnull %4) #5
  call void @llvm.lifetime.start.p0(i64 256, ptr nonnull %5) #5
  %6 = getelementptr inbounds nuw i8, ptr %1, i64 16
  %7 = load i32, ptr %6, align 8, !tbaa !43
  %8 = getelementptr inbounds nuw i8, ptr %1, i64 24
  %9 = load i32, ptr %8, align 8, !tbaa !41
  %10 = load ptr, ptr %1, align 8, !tbaa !38
  %11 = lshr i32 %7, 3
  %12 = zext nneg i32 %11 to i64
  %13 = getelementptr inbounds nuw i8, ptr %10, i64 %12
  %14 = load i32, ptr %13, align 1, !tbaa !36
  %15 = tail call i32 @llvm.bswap.i32(i32 %14)
  %16 = and i32 %7, 7
  %17 = shl i32 %15, %16
  %18 = lshr i32 %17, 27
  %19 = add i32 %7, 5
  %20 = tail call i32 @llvm.umin.i32(i32 %9, i32 %19)
  store i32 %20, ptr %6, align 8, !tbaa !43
  %21 = icmp ugt i32 %17, 2013265919
  br i1 %21, label %22, label %.preheader32

.preheader32:                                     ; preds = %3
  %.not = icmp samesign ult i32 %17, 134217728
  br i1 %.not, label %._crit_edge40, label %.lr.ph39

22:                                               ; preds = %3
  %23 = load ptr, ptr %0, align 8, !tbaa !27
  tail call void (ptr, i32, ptr, ...) @av_log(ptr noundef %23, i32 noundef 16, ptr noundef nonnull @.str.9, i32 noundef %18) #5
  br label %61

.lr.ph39:                                         ; preds = %.preheader32, %._crit_edge
  %.promoted44 = phi i32 [ %.promoted43, %._crit_edge ], [ %20, %.preheader32 ]
  %.038 = phi i32 [ %.1.lcssa, %._crit_edge ], [ 0, %.preheader32 ]
  %.02537 = phi i32 [ %58, %._crit_edge ], [ 0, %.preheader32 ]
  %.02636 = phi i32 [ %34, %._crit_edge ], [ 0, %.preheader32 ]
  %24 = lshr i32 %.promoted44, 3
  %25 = zext nneg i32 %24 to i64
  %26 = getelementptr inbounds nuw i8, ptr %10, i64 %25
  %27 = load i32, ptr %26, align 1, !tbaa !36
  %28 = tail call i32 @llvm.bswap.i32(i32 %27)
  %29 = and i32 %.promoted44, 7
  %30 = shl i32 %28, %29
  %31 = lshr i32 %30, 23
  %32 = add i32 %.promoted44, 9
  %33 = tail call i32 @llvm.umin.i32(i32 %9, i32 %32)
  store i32 %33, ptr %6, align 8, !tbaa !43
  %34 = add nuw nsw i32 %31, %.02636
  %35 = icmp samesign ugt i32 %34, 256
  br i1 %35, label %39, label %.preheader

.preheader:                                       ; preds = %.lr.ph39
  %.not46 = icmp ult i32 %30, 8388608
  br i1 %.not46, label %._crit_edge, label %.lr.ph

.lr.ph:                                           ; preds = %.preheader
  %36 = trunc i32 %.02537 to i8
  %37 = add i8 %36, 1
  %38 = sext i32 %.038 to i64
  br label %41

39:                                               ; preds = %.lr.ph39
  %40 = load ptr, ptr %0, align 8, !tbaa !27
  tail call void (ptr, i32, ptr, ...) @av_log(ptr noundef %40, i32 noundef 16, ptr noundef nonnull @.str.10, i32 noundef %34) #5
  br label %61

41:                                               ; preds = %.lr.ph, %41
  %indvars.iv = phi i64 [ %38, %.lr.ph ], [ %indvars.iv.next, %41 ]
  %42 = phi i32 [ %33, %.lr.ph ], [ %52, %41 ]
  %.02434 = phi i32 [ 0, %.lr.ph ], [ %56, %41 ]
  %43 = lshr i32 %42, 3
  %44 = zext nneg i32 %43 to i64
  %45 = getelementptr inbounds nuw i8, ptr %10, i64 %44
  %46 = load i32, ptr %45, align 1, !tbaa !36
  %47 = tail call i32 @llvm.bswap.i32(i32 %46)
  %48 = and i32 %42, 7
  %49 = shl i32 %47, %48
  %50 = lshr i32 %49, 24
  %51 = add i32 %42, 8
  %52 = tail call i32 @llvm.umin.i32(i32 %9, i32 %51)
  store i32 %52, ptr %6, align 8, !tbaa !43
  %53 = trunc nuw i32 %50 to i8
  %54 = getelementptr inbounds [256 x i8], ptr %4, i64 0, i64 %indvars.iv
  store i8 %53, ptr %54, align 1, !tbaa !36
  %55 = getelementptr inbounds [256 x i8], ptr %5, i64 0, i64 %indvars.iv
  store i8 %37, ptr %55, align 1, !tbaa !36
  %indvars.iv.next = add nsw i64 %indvars.iv, 1
  %56 = add nuw nsw i32 %.02434, 1
  %exitcond.not = icmp eq i32 %56, %31
  br i1 %exitcond.not, label %._crit_edge.loopexit, label %41, !llvm.loop !72

._crit_edge.loopexit:                             ; preds = %41
  %57 = trunc nsw i64 %indvars.iv.next to i32
  br label %._crit_edge

._crit_edge:                                      ; preds = %._crit_edge.loopexit, %.preheader
  %.promoted43 = phi i32 [ %33, %.preheader ], [ %52, %._crit_edge.loopexit ]
  %.1.lcssa = phi i32 [ %.038, %.preheader ], [ %57, %._crit_edge.loopexit ]
  %58 = add nuw nsw i32 %.02537, 1
  %exitcond51.not = icmp eq i32 %58, %18
  br i1 %exitcond51.not, label %._crit_edge40, label %.lr.ph39, !llvm.loop !73

._crit_edge40:                                    ; preds = %._crit_edge, %.preheader32
  %.0.lcssa = phi i32 [ 0, %.preheader32 ], [ %.1.lcssa, %._crit_edge ]
  %59 = load ptr, ptr %0, align 8, !tbaa !27
  %60 = call i32 @ff_vlc_init_from_lengths(ptr noundef nonnull %2, i32 noundef 7, i32 noundef %.0.lcssa, ptr noundef nonnull %5, i32 noundef 1, ptr noundef nonnull %4, i32 noundef 1, i32 noundef 1, i32 noundef 0, i32 noundef 0, ptr noundef %59) #5
  br label %61

61:                                               ; preds = %._crit_edge40, %39, %22
  %.027 = phi i32 [ -1094995529, %22 ], [ -1094995529, %39 ], [ %60, %._crit_edge40 ]
  call void @llvm.lifetime.end.p0(i64 256, ptr nonnull %5) #5
  call void @llvm.lifetime.end.p0(i64 256, ptr nonnull %4) #5
  ret i32 %.027
}